; Function Attrs: nofree nounwind memory(read, inaccessiblemem: none) uwtable
define hidden ptr @fcgi_quick_getenv(ptr nocapture noundef readonly %0, ptr nocapture noundef readonly %1, i32 noundef %2, i32 noundef %3) local_unnamed_addr #24 {
  %5 = getelementptr inbounds i8, ptr %0, i64 8296
  %6 = and i32 %3, 127
  %7 = zext nneg i32 %6 to i64
  %8 = getelementptr inbounds [128 x ptr], ptr %5, i64 0, i64 %7
  %.018.i = load ptr, ptr %8, align 8
  %.not19.i = icmp eq ptr %.018.i, null
  br i1 %.not19.i, label %fcgi_hash_get.exit, label %.lr.ph.i

.lr.ph.i:                                         ; preds = %4
  %9 = zext i32 %2 to i64
  br label %10

10:                                               ; preds = %24, %.lr.ph.i
  %.020.i = phi ptr [ %.018.i, %.lr.ph.i ], [ %.0.i, %24 ]
  %11 = load i32, ptr %.020.i, align 8
  %12 = icmp eq i32 %11, %3
  br i1 %12, label %13, label %24

13:                                               ; preds = %10
  %14 = getelementptr inbounds i8, ptr %.020.i, i64 4
  %15 = load i32, ptr %14, align 4
  %16 = icmp eq i32 %15, %2
  br i1 %16, label %17, label %24

17:                                               ; preds = %13
  %18 = getelementptr inbounds i8, ptr %.020.i, i64 8
  %19 = load ptr, ptr %18, align 8
  %bcmp.i = tail call i32 @bcmp(ptr %19, ptr %1, i64 %9)
  %20 = icmp eq i32 %bcmp.i, 0
  br i1 %20, label %21, label %24

21:                                               ; preds = %17
  %22 = getelementptr inbounds i8, ptr %.020.i, i64 24
  %23 = load ptr, ptr %22, align 8
  br label %fcgi_hash_get.exit

24:                                               ; preds = %17, %13, %10
  %25 = getelementptr inbounds i8, ptr %.020.i, i64 32
  %.0.i = load ptr, ptr %25, align 8
  %.not.i = icmp eq ptr %.0.i, null
  br i1 %.not.i, label %fcgi_hash_get.exit, label %10

fcgi_hash_get.exit:                               ; preds = %24, %4, %21
  %.015.i = phi ptr [ %23, %21 ], [ null, %4 ], [ null, %24 ]
  ret ptr %.015.i
}